target datalayout = "e-m:e-p270:32:32-p271:32:32-p272:64:64-i64:64-i128:128-f80:128-n8:16:32:64-S128"
target triple = "x86_64-pc-linux-gnu"

%struct.DdManager = type { %struct.DdNode, ptr, ptr, ptr, ptr, ptr, ptr, ptr, i32, i32, double, double, double, i32, i32, i32, i32, i32, i32, ptr, ptr, %struct.DdSubtable, i32, i32, i32, i32, i32, i32, i32, double, i32, i32, i32, ptr, i64, double, i32, ptr, ptr, ptr, ptr, ptr, ptr, ptr, i32, ptr, ptr, ptr, ptr, ptr, ptr, i32, i32, i32, double, i32, i32, i32, i32, double, double, i32, i32, i32, i32, i32, i32, i32, i32, i32, ptr, ptr, i32, i32, i32, i32, i32, i32, ptr, ptr, ptr, ptr, ptr, ptr, ptr, ptr, i32, i64, i64, i64, i32, i64, i64, double, double, double, double, double, double, i32, ptr, ptr, i64 }
%struct.DdNode = type { i32, i32, ptr, %union.anon, i64 }
%union.anon = type { %struct.DdChildren }
%struct.DdChildren = type { ptr, ptr }
%struct.DdSubtable = type { ptr, i32, i32, i32, i32, i32, i32, i32, i32, i32, i32, i32 }
%struct.DdTlcInfo = type { ptr, ptr, i32 }

@Tolv = internal global ptr null, align 8
@Tolp = internal global ptr null, align 8
@Eolv = internal global ptr null, align 8
@Eolp = internal global ptr null, align 8

; Function Attrs: nounwind uwtable
define internal i32 @sentinelp(i32 noundef %0, i32 noundef %1) #0 {
  %3 = alloca i32, align 4
  %4 = alloca i32, align 4
  store i32 %0, ptr %3, align 4
  store i32 %1, ptr %4, align 4
  %5 = load i32, ptr %3, align 4
  %6 = icmp eq i32 %5, 0
  br i1 %6, label %7, label %10

7:                                                ; preds = %2
  %8 = load i32, ptr %4, align 4
  %9 = icmp eq i32 %8, 0
  br label %10

10:                                               ; preds = %7, %2
  %11 = phi i1 [ false, %2 ], [ %9, %7 ]
  %12 = zext i1 %11 to i32
  ret i32 %12
}

; Function Attrs: nounwind uwtable
define void @Cudd_tlcInfoFree(ptr noundef %0) #0 {
  %2 = alloca ptr, align 8
  store ptr %0, ptr %2, align 8
  %3 = load ptr, ptr %2, align 8
  %4 = getelementptr inbounds %struct.DdTlcInfo, ptr %3, i32 0, i32 0
  %5 = load ptr, ptr %4, align 8
  %6 = icmp ne ptr %5, null
  br i1 %6, label %7, label %20

7:                                                ; preds = %1
  %8 = load ptr, ptr %2, align 8
  %9 = getelementptr inbounds %struct.DdTlcInfo, ptr %8, i32 0, i32 0
  %10 = load ptr, ptr %9, align 8
  %11 = icmp ne ptr %10, null
  br i1 %11, label %12, label %18

12:                                               ; preds = %7
  %13 = load ptr, ptr %2, align 8
  %14 = getelementptr inbounds %struct.DdTlcInfo, ptr %13, i32 0, i32 0
  %15 = load ptr, ptr %14, align 8
  call void @free(ptr noundef %15) #6
  %16 = load ptr, ptr %2, align 8
  %17 = getelementptr inbounds %struct.DdTlcInfo, ptr %16, i32 0, i32 0
  store ptr null, ptr %17, align 8
  br label %19

18:                                               ; preds = %7
  br label %19

19:                                               ; preds = %18, %12
  br label %20

20:                                               ; preds = %19, %1
  %21 = load ptr, ptr %2, align 8
  %22 = getelementptr inbounds %struct.DdTlcInfo, ptr %21, i32 0, i32 1
  %23 = load ptr, ptr %22, align 8
  %24 = icmp ne ptr %23, null
  br i1 %24, label %25, label %38

25:                                               ; preds = %20
  %26 = load ptr, ptr %2, align 8
  %27 = getelementptr inbounds %struct.DdTlcInfo, ptr %26, i32 0, i32 1
  %28 = load ptr, ptr %27, align 8
  %29 = icmp ne ptr %28, null
  br i1 %29, label %30, label %36

30:                                               ; preds = %25
  %31 = load ptr, ptr %2, align 8
  %32 = getelementptr inbounds %struct.DdTlcInfo, ptr %31, i32 0, i32 1
  %33 = load ptr, ptr %32, align 8
  call void @free(ptr noundef %33) #6
  %34 = load ptr, ptr %2, align 8
  %35 = getelementptr inbounds %struct.DdTlcInfo, ptr %34, i32 0, i32 1
  store ptr null, ptr %35, align 8
  br label %37

36:                                               ; preds = %25
  br label %37

37:                                               ; preds = %36, %30
  br label %38

38:                                               ; preds = %37, %20
  %39 = load ptr, ptr %2, align 8
  %40 = icmp ne ptr %39, null
  br i1 %40, label %41, label %43

41:                                               ; preds = %38
  %42 = load ptr, ptr %2, align 8
  call void @free(ptr noundef %42) #6
  store ptr null, ptr %2, align 8
  br label %44

43:                                               ; preds = %38
  br label %44

44:                                               ; preds = %43, %41
  ret void
}

; Function Attrs: nounwind uwtable
define internal void @bitVectorFree(ptr noundef %0) #0 {
  %2 = alloca ptr, align 8
  store ptr %0, ptr %2, align 8
  %3 = load ptr, ptr %2, align 8
  %4 = icmp ne ptr %3, null
  br i1 %4, label %5, label %7

5:                                                ; preds = %1
  %6 = load ptr, ptr %2, align 8
  call void @free(ptr noundef %6) #6
  store ptr null, ptr %2, align 8
  br label %8

7:                                                ; preds = %1
  br label %8

8:                                                ; preds = %7, %5
  ret void
}

; Function Attrs: nounwind uwtable
define internal ptr @bitVectorAlloc(i32 noundef %0) #0 {
  %2 = alloca ptr, align 8
  %3 = alloca i32, align 4
  %4 = alloca i32, align 4
  %5 = alloca ptr, align 8
  store i32 %0, ptr %3, align 4
  %6 = load i32, ptr %3, align 4
  %7 = sub nsw i32 %6, 1
  %8 = sext i32 %7 to i64
  %9 = udiv i64 %8, 64
  %10 = add i64 %9, 1
  %11 = trunc i64 %10 to i32
  store i32 %11, ptr %4, align 4
  %12 = load i32, ptr %4, align 4
  %13 = sext i32 %12 to i64
  %14 = mul i64 8, %13
  %15 = call noalias ptr @malloc(i64 noundef %14) #5
  store ptr %15, ptr %5, align 8
  %16 = load ptr, ptr %5, align 8
  %17 = icmp eq ptr %16, null
  br i1 %17, label %18, label %19

18:                                               ; preds = %1
  store ptr null, ptr %2, align 8
  br label %25

19:                                               ; preds = %1
  %20 = load ptr, ptr %5, align 8
  %21 = load i32, ptr %4, align 4
  %22 = sext i32 %21 to i64
  %23 = mul i64 %22, 8
  call void @llvm.memset.p0.i64(ptr align 8 %20, i8 0, i64 %23, i1 false)
  %24 = load ptr, ptr %5, align 8
  store ptr %24, ptr %2, align 8
  br label %25

25:                                               ; preds = %19, %18
  %26 = load ptr, ptr %2, align 8
  ret ptr %26
}

; Function Attrs: nounwind uwtable
define internal ptr @emptyClauseSet() #0 {
  %1 = alloca ptr, align 8
  %2 = alloca ptr, align 8
  %3 = call noalias ptr @malloc(i64 noundef 24) #5
  store ptr %3, ptr %2, align 8
  %4 = load ptr, ptr %2, align 8
  %5 = icmp eq ptr %4, null
  br i1 %5, label %6, label %7

6:                                                ; preds = %0
  store ptr null, ptr %1, align 8
  br label %36

7:                                                ; preds = %0
  %8 = call noalias ptr @malloc(i64 noundef 8) #5
  %9 = load ptr, ptr %2, align 8
  %10 = getelementptr inbounds %struct.DdTlcInfo, ptr %9, i32 0, i32 0
  store ptr %8, ptr %10, align 8
  %11 = load ptr, ptr %2, align 8
  %12 = getelementptr inbounds %struct.DdTlcInfo, ptr %11, i32 0, i32 0
  %13 = load ptr, ptr %12, align 8
  %14 = icmp eq ptr %13, null
  br i1 %14, label %15, label %22

15:                                               ; preds = %7
  %16 = load ptr, ptr %2, align 8
  %17 = icmp ne ptr %16, null
  br i1 %17, label %18, label %20

18:                                               ; preds = %15
  %19 = load ptr, ptr %2, align 8
  call void @free(ptr noundef %19) #6
  store ptr null, ptr %2, align 8
  br label %21

20:                                               ; preds = %15
  br label %21

21:                                               ; preds = %20, %18
  store ptr null, ptr %1, align 8
  br label %36

22:                                               ; preds = %7
  %23 = load ptr, ptr %2, align 8
  %24 = getelementptr inbounds %struct.DdTlcInfo, ptr %23, i32 0, i32 0
  %25 = load ptr, ptr %24, align 8
  %26 = getelementptr inbounds i32, ptr %25, i64 0
  store i32 0, ptr %26, align 4
  %27 = load ptr, ptr %2, align 8
  %28 = getelementptr inbounds %struct.DdTlcInfo, ptr %27, i32 0, i32 0
  %29 = load ptr, ptr %28, align 8
  %30 = getelementptr inbounds i32, ptr %29, i64 1
  store i32 0, ptr %30, align 4
  %31 = load ptr, ptr %2, align 8
  %32 = getelementptr inbounds %struct.DdTlcInfo, ptr %31, i32 0, i32 1
  store ptr null, ptr %32, align 8
  %33 = load ptr, ptr %2, align 8
  %34 = getelementptr inbounds %struct.DdTlcInfo, ptr %33, i32 0, i32 2
  store i32 0, ptr %34, align 8
  %35 = load ptr, ptr %2, align 8
  store ptr %35, ptr %1, align 8
  br label %36

36:                                               ; preds = %22, %21, %6
  %37 = load ptr, ptr %1, align 8
  ret ptr %37
}

; Function Attrs: nounwind uwtable
define ptr @Cudd_FindTwoLiteralClauses(ptr noundef %0, ptr noundef %1) #0 {
  %3 = alloca ptr, align 8
  %4 = alloca ptr, align 8
  %5 = alloca ptr, align 8
  %6 = alloca ptr, align 8
  %7 = alloca ptr, align 8
  %8 = alloca ptr, align 8
  %9 = alloca ptr, align 8
  %10 = alloca ptr, align 8
  %11 = alloca i32, align 4
  %12 = alloca i32, align 4
  store ptr %0, ptr %4, align 8
  store ptr %1, ptr %5, align 8
  %13 = load ptr, ptr %4, align 8
  %14 = getelementptr inbounds %struct.DdManager, ptr %13, i32 0, i32 15
  %15 = load i32, ptr %14, align 8
  store i32 %15, ptr %11, align 4
  %16 = load ptr, ptr %5, align 8
  %17 = ptrtoint ptr %16 to i64
  %18 = and i64 %17, -2
  %19 = inttoptr i64 %18 to ptr
  %20 = getelementptr inbounds %struct.DdNode, ptr %19, i32 0, i32 0
  %21 = load i32, ptr %20, align 8
  %22 = icmp eq i32 %21, 2147483647
  br i1 %22, label %23, label %26

23:                                               ; preds = %2
  %24 = call ptr @emptyClauseSet()
  store ptr %24, ptr %6, align 8
  %25 = load ptr, ptr %6, align 8
  store ptr %25, ptr %3, align 8
  br label %126

26:                                               ; preds = %2
  %27 = call ptr @st__init_table(ptr noundef @st__ptrcmp, ptr noundef @st__ptrhash)
  store ptr %27, ptr %7, align 8
  %28 = load ptr, ptr %7, align 8
  %29 = icmp eq ptr %28, null
  br i1 %29, label %30, label %31

30:                                               ; preds = %26
  store ptr null, ptr %3, align 8
  br label %126

31:                                               ; preds = %26
  %32 = load i32, ptr %11, align 4
  %33 = call ptr @bitVectorAlloc(i32 noundef %32)
  store ptr %33, ptr @Tolv, align 8
  %34 = load ptr, ptr @Tolv, align 8
  %35 = icmp eq ptr %34, null
  br i1 %35, label %36, label %38

36:                                               ; preds = %31
  %37 = load ptr, ptr %7, align 8
  call void @st__free_table(ptr noundef %37)
  store ptr null, ptr %3, align 8
  br label %126

38:                                               ; preds = %31
  %39 = load i32, ptr %11, align 4
  %40 = call ptr @bitVectorAlloc(i32 noundef %39)
  store ptr %40, ptr @Tolp, align 8
  %41 = load ptr, ptr @Tolp, align 8
  %42 = icmp eq ptr %41, null
  br i1 %42, label %43, label %46

43:                                               ; preds = %38
  %44 = load ptr, ptr %7, align 8
  call void @st__free_table(ptr noundef %44)
  %45 = load ptr, ptr @Tolv, align 8
  call void @bitVectorFree(ptr noundef %45)
  store ptr null, ptr %3, align 8
  br label %126

46:                                               ; preds = %38
  %47 = load i32, ptr %11, align 4
  %48 = call ptr @bitVectorAlloc(i32 noundef %47)
  store ptr %48, ptr @Eolv, align 8
  %49 = load ptr, ptr @Eolv, align 8
  %50 = icmp eq ptr %49, null
  br i1 %50, label %51, label %55

51:                                               ; preds = %46
  %52 = load ptr, ptr %7, align 8
  call void @st__free_table(ptr noundef %52)
  %53 = load ptr, ptr @Tolv, align 8
  call void @bitVectorFree(ptr noundef %53)
  %54 = load ptr, ptr @Tolp, align 8
  call void @bitVectorFree(ptr noundef %54)
  store ptr null, ptr %3, align 8
  br label %126

55:                                               ; preds = %46
  %56 = load i32, ptr %11, align 4
  %57 = call ptr @bitVectorAlloc(i32 noundef %56)
  store ptr %57, ptr @Eolp, align 8
  %58 = load ptr, ptr @Eolp, align 8
  %59 = icmp eq ptr %58, null
  br i1 %59, label %60, label %65

60:                                               ; preds = %55
  %61 = load ptr, ptr %7, align 8
  call void @st__free_table(ptr noundef %61)
  %62 = load ptr, ptr @Tolv, align 8
  call void @bitVectorFree(ptr noundef %62)
  %63 = load ptr, ptr @Tolp, align 8
  call void @bitVectorFree(ptr noundef %63)
  %64 = load ptr, ptr @Eolv, align 8
  call void @bitVectorFree(ptr noundef %64)
  store ptr null, ptr %3, align 8
  br label %126

65:                                               ; preds = %55
  %66 = load ptr, ptr %4, align 8
  %67 = load ptr, ptr %5, align 8
  %68 = load ptr, ptr %7, align 8
  %69 = call ptr @ddFindTwoLiteralClausesRecur(ptr noundef %66, ptr noundef %67, ptr noundef %68)
  store ptr %69, ptr %6, align 8
  %70 = load ptr, ptr %7, align 8
  %71 = call ptr @st__init_gen(ptr noundef %70)
  store ptr %71, ptr %8, align 8
  br label %72

72:                                               ; preds = %86, %65
  %73 = load ptr, ptr %8, align 8
  %74 = call i32 @st__gen(ptr noundef %73, ptr noundef %10, ptr noundef %9)
  %75 = icmp ne i32 %74, 0
  br i1 %75, label %78, label %76

76:                                               ; preds = %72
  %77 = load ptr, ptr %8, align 8
  call void @st__free_gen(ptr noundef %77)
  br label %78

78:                                               ; preds = %76, %72
  %79 = phi i1 [ true, %72 ], [ false, %76 ]
  br i1 %79, label %80, label %87

80:                                               ; preds = %78
  %81 = load ptr, ptr %10, align 8
  %82 = load ptr, ptr %5, align 8
  %83 = icmp ne ptr %81, %82
  br i1 %83, label %84, label %86

84:                                               ; preds = %80
  %85 = load ptr, ptr %9, align 8
  call void @Cudd_tlcInfoFree(ptr noundef %85)
  br label %86

86:                                               ; preds = %84, %80
  br label %72, !llvm.loop !6

87:                                               ; preds = %78
  %88 = load ptr, ptr %7, align 8
  call void @st__free_table(ptr noundef %88)
  %89 = load ptr, ptr @Tolv, align 8
  call void @bitVectorFree(ptr noundef %89)
  %90 = load ptr, ptr @Tolp, align 8
  call void @bitVectorFree(ptr noundef %90)
  %91 = load ptr, ptr @Eolv, align 8
  call void @bitVectorFree(ptr noundef %91)
  %92 = load ptr, ptr @Eolp, align 8
  call void @bitVectorFree(ptr noundef %92)
  %93 = load ptr, ptr %6, align 8
  %94 = icmp ne ptr %93, null
  br i1 %94, label %95, label %124

95:                                               ; preds = %87
  store i32 0, ptr %12, align 4
  br label %96

96:                                               ; preds = %116, %95
  %97 = load ptr, ptr %6, align 8
  %98 = getelementptr inbounds %struct.DdTlcInfo, ptr %97, i32 0, i32 0
  %99 = load ptr, ptr %98, align 8
  %100 = load i32, ptr %12, align 4
  %101 = sext i32 %100 to i64
  %102 = getelementptr inbounds i32, ptr %99, i64 %101
  %103 = load i32, ptr %102, align 4
  %104 = load ptr, ptr %6, align 8
  %105 = getelementptr inbounds %struct.DdTlcInfo, ptr %104, i32 0, i32 0
  %106 = load ptr, ptr %105, align 8
  %107 = load i32, ptr %12, align 4
  %108 = add nsw i32 %107, 1
  %109 = sext i32 %108 to i64
  %110 = getelementptr inbounds i32, ptr %106, i64 %109
  %111 = load i32, ptr %110, align 4
  %112 = call i32 @sentinelp(i32 noundef %103, i32 noundef %111)
  %113 = icmp ne i32 %112, 0
  %114 = xor i1 %113, true
  br i1 %114, label %115, label %119

115:                                              ; preds = %96
  br label %116

116:                                              ; preds = %115
  %117 = load i32, ptr %12, align 4
  %118 = add nsw i32 %117, 2
  store i32 %118, ptr %12, align 4
  br label %96, !llvm.loop !7

119:                                              ; preds = %96
  %120 = load i32, ptr %12, align 4
  %121 = ashr i32 %120, 1
  %122 = load ptr, ptr %6, align 8
  %123 = getelementptr inbounds %struct.DdTlcInfo, ptr %122, i32 0, i32 2
  store i32 %121, ptr %123, align 8
  br label %124

124:                                              ; preds = %119, %87
  %125 = load ptr, ptr %6, align 8
  store ptr %125, ptr %3, align 8
  br label %126

126:                                              ; preds = %124, %60, %51, %43, %36, %30, %23
  %127 = load ptr, ptr %3, align 8
  ret ptr %127
}