; Function Attrs: nounwind uwtable
define ptr @Cudd_FindTwoLiteralClauses(ptr noundef %0, ptr noundef %1) local_unnamed_addr #0 {
  %3 = alloca ptr, align 8
  %4 = alloca ptr, align 8
  %5 = getelementptr inbounds nuw i8, ptr %0, i64 136
  %6 = load i32, ptr %5, align 8
  %7 = ptrtoint ptr %1 to i64
  %8 = and i64 %7, -2
  %9 = inttoptr i64 %8 to ptr
  %10 = load i32, ptr %9, align 8
  %11 = icmp eq i32 %10, 2147483647
  br i1 %11, label %12, label %23

12:                                               ; preds = %2
  %13 = tail call noalias dereferenceable_or_null(24) ptr @malloc(i64 noundef 24) #12
  %14 = icmp eq ptr %13, null
  br i1 %14, label %emptyClauseSet.exit, label %15

15:                                               ; preds = %12
  %16 = tail call noalias dereferenceable_or_null(8) ptr @malloc(i64 noundef 8) #12
  store ptr %16, ptr %13, align 8
  %17 = icmp eq ptr %16, null
  br i1 %17, label %18, label %19

18:                                               ; preds = %15
  tail call void @free(ptr noundef nonnull %13) #11
  br label %emptyClauseSet.exit

19:                                               ; preds = %15
  store i32 0, ptr %16, align 4
  %20 = getelementptr inbounds nuw i8, ptr %16, i64 4
  store i32 0, ptr %20, align 4
  %21 = getelementptr inbounds nuw i8, ptr %13, i64 8
  store ptr null, ptr %21, align 8
  %22 = getelementptr inbounds nuw i8, ptr %13, i64 16
  store i32 0, ptr %22, align 8
  br label %emptyClauseSet.exit

23:                                               ; preds = %2
  %24 = tail call ptr @st__init_table(ptr noundef nonnull @st__ptrcmp, ptr noundef nonnull @st__ptrhash) #11
  %25 = icmp eq ptr %24, null
  br i1 %25, label %emptyClauseSet.exit, label %26

26:                                               ; preds = %23
  %27 = add nsw i32 %6, -1
  %28 = ashr i32 %27, 6
  %29 = add nsw i32 %28, 1
  %30 = sext i32 %29 to i64
  %31 = shl nsw i64 %30, 3
  %calloc.i = tail call noalias noundef ptr @calloc(i64 1, i64 %31)
  store ptr %calloc.i, ptr @Tolv, align 8
  %32 = icmp eq ptr %calloc.i, null
  br i1 %32, label %33, label %34

33:                                               ; preds = %26
  tail call void @st__free_table(ptr noundef nonnull %24) #11
  br label %emptyClauseSet.exit

34:                                               ; preds = %26
  %calloc.i35 = tail call noalias noundef ptr @calloc(i64 1, i64 %31)
  store ptr %calloc.i35, ptr @Tolp, align 8
  %35 = icmp eq ptr %calloc.i35, null
  br i1 %35, label %36, label %39

36:                                               ; preds = %34
  tail call void @st__free_table(ptr noundef nonnull %24) #11
  %37 = load ptr, ptr @Tolv, align 8
  %.not.i = icmp eq ptr %37, null
  br i1 %.not.i, label %emptyClauseSet.exit, label %38

38:                                               ; preds = %36
  tail call void @free(ptr noundef nonnull %37) #11
  br label %emptyClauseSet.exit

39:                                               ; preds = %34
  %calloc.i36 = tail call noalias noundef ptr @calloc(i64 1, i64 %31)
  store ptr %calloc.i36, ptr @Eolv, align 8
  %40 = icmp eq ptr %calloc.i36, null
  br i1 %40, label %41, label %46

41:                                               ; preds = %39
  tail call void @st__free_table(ptr noundef nonnull %24) #11
  %42 = load ptr, ptr @Tolv, align 8
  %.not.i37 = icmp eq ptr %42, null
  br i1 %.not.i37, label %bitVectorFree.exit38, label %43

43:                                               ; preds = %41
  tail call void @free(ptr noundef nonnull %42) #11
  br label %bitVectorFree.exit38

bitVectorFree.exit38:                             ; preds = %41, %43
  %44 = load ptr, ptr @Tolp, align 8
  %.not.i39 = icmp eq ptr %44, null
  br i1 %.not.i39, label %emptyClauseSet.exit, label %45

45:                                               ; preds = %bitVectorFree.exit38
  tail call void @free(ptr noundef nonnull %44) #11
  br label %emptyClauseSet.exit

46:                                               ; preds = %39
  %calloc.i41 = tail call noalias noundef ptr @calloc(i64 1, i64 %31)
  store ptr %calloc.i41, ptr @Eolp, align 8
  %47 = icmp eq ptr %calloc.i41, null
  br i1 %47, label %48, label %55

48:                                               ; preds = %46
  tail call void @st__free_table(ptr noundef nonnull %24) #11
  %49 = load ptr, ptr @Tolv, align 8
  %.not.i42 = icmp eq ptr %49, null
  br i1 %.not.i42, label %bitVectorFree.exit43, label %50

50:                                               ; preds = %48
  tail call void @free(ptr noundef nonnull %49) #11
  br label %bitVectorFree.exit43

bitVectorFree.exit43:                             ; preds = %48, %50
  %51 = load ptr, ptr @Tolp, align 8
  %.not.i44 = icmp eq ptr %51, null
  br i1 %.not.i44, label %bitVectorFree.exit45, label %52

52:                                               ; preds = %bitVectorFree.exit43
  tail call void @free(ptr noundef nonnull %51) #11
  br label %bitVectorFree.exit45

bitVectorFree.exit45:                             ; preds = %bitVectorFree.exit43, %52
  %53 = load ptr, ptr @Eolv, align 8
  %.not.i46 = icmp eq ptr %53, null
  br i1 %.not.i46, label %emptyClauseSet.exit, label %54

54:                                               ; preds = %bitVectorFree.exit45
  tail call void @free(ptr noundef nonnull %53) #11
  br label %emptyClauseSet.exit

55:                                               ; preds = %46
  %56 = tail call fastcc ptr @ddFindTwoLiteralClausesRecur(ptr noundef nonnull %0, ptr noundef %1, ptr noundef %24)
  %57 = tail call ptr @st__init_gen(ptr noundef nonnull %24) #11
  %58 = call i32 @st__gen(ptr noundef %57, ptr noundef nonnull %4, ptr noundef nonnull %3) #11
  %.not58 = icmp eq i32 %58, 0
  br i1 %.not58, label %._crit_edge, label %.critedge

._crit_edge:                                      ; preds = %77, %55
  call void @st__free_gen(ptr noundef %57) #11
  call void @st__free_table(ptr noundef nonnull %24) #11
  %59 = load ptr, ptr @Tolv, align 8
  %.not.i48 = icmp eq ptr %59, null
  br i1 %.not.i48, label %bitVectorFree.exit49, label %60

60:                                               ; preds = %._crit_edge
  call void @free(ptr noundef nonnull %59) #11
  br label %bitVectorFree.exit49

bitVectorFree.exit49:                             ; preds = %._crit_edge, %60
  %61 = load ptr, ptr @Tolp, align 8
  %.not.i50 = icmp eq ptr %61, null
  br i1 %.not.i50, label %bitVectorFree.exit51, label %62

62:                                               ; preds = %bitVectorFree.exit49
  call void @free(ptr noundef nonnull %61) #11
  br label %bitVectorFree.exit51

bitVectorFree.exit51:                             ; preds = %bitVectorFree.exit49, %62
  %63 = load ptr, ptr @Eolv, align 8
  %.not.i52 = icmp eq ptr %63, null
  br i1 %.not.i52, label %bitVectorFree.exit53, label %64

64:                                               ; preds = %bitVectorFree.exit51
  call void @free(ptr noundef nonnull %63) #11
  br label %bitVectorFree.exit53

bitVectorFree.exit53:                             ; preds = %bitVectorFree.exit51, %64
  %65 = load ptr, ptr @Eolp, align 8
  %.not.i54 = icmp eq ptr %65, null
  br i1 %.not.i54, label %bitVectorFree.exit55, label %66

66:                                               ; preds = %bitVectorFree.exit53
  call void @free(ptr noundef nonnull %65) #11
  br label %bitVectorFree.exit55

bitVectorFree.exit55:                             ; preds = %bitVectorFree.exit53, %66
  %.not32 = icmp eq ptr %56, null
  br i1 %.not32, label %emptyClauseSet.exit, label %.preheader

.preheader:                                       ; preds = %bitVectorFree.exit55
  %67 = load ptr, ptr %56, align 8
  br label %79

.critedge:                                        ; preds = %55, %77
  %68 = load ptr, ptr %4, align 8
  %.not34 = icmp eq ptr %68, %1
  br i1 %.not34, label %77, label %69

69:                                               ; preds = %.critedge
  %70 = load ptr, ptr %3, align 8
  %71 = load ptr, ptr %70, align 8
  %.not.i56 = icmp eq ptr %71, null
  br i1 %.not.i56, label %73, label %72

72:                                               ; preds = %69
  call void @free(ptr noundef nonnull %71) #11
  store ptr null, ptr %70, align 8
  br label %73

73:                                               ; preds = %72, %69
  %74 = getelementptr inbounds nuw i8, ptr %70, i64 8
  %75 = load ptr, ptr %74, align 8
  %.not11.i = icmp eq ptr %75, null
  br i1 %.not11.i, label %Cudd_tlcInfoFree.exit, label %76

76:                                               ; preds = %73
  call void @free(ptr noundef nonnull %75) #11
  br label %Cudd_tlcInfoFree.exit

Cudd_tlcInfoFree.exit:                            ; preds = %73, %76
  call void @free(ptr noundef nonnull %70) #11
  br label %77

77:                                               ; preds = %Cudd_tlcInfoFree.exit, %.critedge
  %78 = call i32 @st__gen(ptr noundef %57, ptr noundef nonnull %4, ptr noundef nonnull %3) #11
  %.not = icmp eq i32 %78, 0
  br i1 %.not, label %._crit_edge, label %.critedge, !llvm.loop !6

79:                                               ; preds = %79, %.preheader
  %indvars.iv = phi i64 [ %indvars.iv.next, %79 ], [ 0, %.preheader ]
  %80 = getelementptr inbounds nuw i32, ptr %67, i64 %indvars.iv
  %81 = load i32, ptr %80, align 4
  %82 = or disjoint i64 %indvars.iv, 1
  %83 = getelementptr inbounds nuw i32, ptr %67, i64 %82
  %84 = load i32, ptr %83, align 4
  %85 = or i32 %84, %81
  %.not57 = icmp eq i32 %85, 0
  %indvars.iv.next = add nuw nsw i64 %indvars.iv, 2
  br i1 %.not57, label %86, label %79, !llvm.loop !7

86:                                               ; preds = %79
  %87 = trunc nuw nsw i64 %indvars.iv to i32
  %88 = lshr exact i32 %87, 1
  %89 = getelementptr inbounds nuw i8, ptr %56, i64 16
  store i32 %88, ptr %89, align 8
  br label %emptyClauseSet.exit

emptyClauseSet.exit:                              ; preds = %54, %bitVectorFree.exit45, %45, %bitVectorFree.exit38, %38, %36, %19, %18, %12, %bitVectorFree.exit55, %86, %23, %33
  %.029 = phi ptr [ null, %33 ], [ null, %23 ], [ %56, %86 ], [ null, %bitVectorFree.exit55 ], [ null, %18 ], [ %13, %19 ], [ null, %12 ], [ null, %36 ], [ null, %38 ], [ null, %bitVectorFree.exit38 ], [ null, %45 ], [ null, %bitVectorFree.exit45 ], [ null, %54 ]
  ret ptr %.029
}